; Function Attrs: nounwind uwtable
define internal fastcc range(i32 -1, 1) i32 @real_to_complex(ptr noundef nonnull %0, ptr noundef nonnull initializes((8, 16)) %1) unnamed_addr #9 {
  %3 = getelementptr inbounds nuw i8, ptr %1, i64 8
  store double 0.000000e+00, ptr %3, align 8, !tbaa !35
  %4 = load ptr, ptr %0, align 8, !tbaa !32
  %5 = getelementptr i8, ptr %4, i64 8
  %.val.i = load ptr, ptr %5, align 8, !tbaa !8
  %.not.i.i = icmp eq ptr %.val.i, @PyFloat_Type
  br i1 %.not.i.i, label %PyObject_TypeCheck.exit.thread.i, label %PyObject_TypeCheck.exit.i

PyObject_TypeCheck.exit.i:                        ; preds = %2
  %6 = tail call i32 @PyType_IsSubtype(ptr noundef %.val.i, ptr noundef nonnull @PyFloat_Type) #16
  %.not8.i = icmp eq i32 %6, 0
  br i1 %.not8.i, label %8, label %PyObject_TypeCheck.exit.thread.i

PyObject_TypeCheck.exit.thread.i:                 ; preds = %PyObject_TypeCheck.exit.i, %2
  %7 = getelementptr i8, ptr %4, i64 16
  %.val6.i = load double, ptr %7, align 8, !tbaa !36
  store double %.val6.i, ptr %1, align 8, !tbaa !13
  br label %11

8:                                                ; preds = %PyObject_TypeCheck.exit.i
  %9 = tail call i32 @_Py_convert_int_to_double(ptr noundef nonnull %0, ptr noundef nonnull %1) #16
  %10 = icmp slt i32 %9, 0
  br i1 %10, label %real_to_double.exit, label %11

11:                                               ; preds = %8, %PyObject_TypeCheck.exit.thread.i
  br label %real_to_double.exit

real_to_double.exit:                              ; preds = %8, %11
  %.0.i = phi i32 [ 0, %11 ], [ -1, %8 ]
  ret i32 %.0.i
}